target datalayout = "e-m:e-p270:32:32-p271:32:32-p272:64:64-i64:64-i128:128-f80:128-n8:16:32:64-S128"
target triple = "x86_64-pc-linux-gnu"

%struct.anon.8 = type { i8 }
%struct.hb_outline_point_t = type { float, float, i32 }
%struct.hb_outline_t = type { %struct.hb_vector_t, %struct.hb_vector_t.0 }
%struct.hb_vector_t = type { i32, i32, ptr }
%struct.hb_vector_t.0 = type { i32, i32, ptr }

@_hb_NullPool = external constant [80 x i64], align 16
@_hb_CrapPool = external global [80 x i64], align 16
@_ZL6hb_max = internal constant %struct.anon.8 zeroinitializer, align 1

; Function Attrs: mustprogress nounwind uwtable
define linkonce_odr hidden noundef nonnull align 4 dereferenceable(12) ptr @_ZN4NullI18hb_outline_point_tE8get_nullEv() #2 comdat align 2 {
  ret ptr @_hb_NullPool
}

; Function Attrs: mustprogress uwtable
define linkonce_odr hidden noundef nonnull align 4 dereferenceable(12) ptr @_ZN10NullHelperI18hb_outline_point_tE8get_nullEv() #0 comdat align 2 {
  %1 = call noundef nonnull align 4 dereferenceable(12) ptr @_ZN4NullI18hb_outline_point_tE8get_nullEv()
  ret ptr %1
}

; Function Attrs: mustprogress uwtable
define internal noundef nonnull align 4 dereferenceable(12) ptr @_ZL4CrapI18hb_outline_point_tERT_v() #0 {
  %1 = alloca ptr, align 8
  store ptr @_hb_CrapPool, ptr %1, align 8
  %2 = load ptr, ptr %1, align 8
  %3 = call noundef nonnull align 4 dereferenceable(12) ptr @_ZN10NullHelperI18hb_outline_point_tE8get_nullEv()
  call void @llvm.memcpy.p0.p0.i64(ptr align 4 %2, ptr align 4 %3, i64 12, i1 false)
  %4 = load ptr, ptr %1, align 8
  ret ptr %4
}

; Function Attrs: mustprogress nounwind uwtable
define linkonce_odr hidden noundef ptr @_ZN11hb_vector_tI18hb_outline_point_tLb0EE14realloc_vectorIS0_TnPN12hb_enable_ifIXsr3std28is_trivially_copy_assignableIT_EE5valueEvE4typeELPv0EEEPS0_j11hb_priorityILj0EE(ptr noundef nonnull align 8 dereferenceable(16) %0, i32 noundef %1) #2 comdat align 2 {
  %3 = alloca ptr, align 8
  %4 = alloca ptr, align 8
  %5 = alloca i32, align 4
  store ptr %0, ptr %4, align 8
  store i32 %1, ptr %5, align 4
  %6 = load ptr, ptr %4, align 8
  %7 = load i32, ptr %5, align 4
  %8 = icmp ne i32 %7, 0
  br i1 %8, label %12, label %9

9:                                                ; preds = %2
  %10 = getelementptr inbounds %struct.hb_vector_t, ptr %6, i32 0, i32 2
  %11 = load ptr, ptr %10, align 8
  call void @free(ptr noundef %11) #8
  store ptr null, ptr %3, align 8
  br label %19

12:                                               ; preds = %2
  %13 = getelementptr inbounds %struct.hb_vector_t, ptr %6, i32 0, i32 2
  %14 = load ptr, ptr %13, align 8
  %15 = load i32, ptr %5, align 4
  %16 = zext i32 %15 to i64
  %17 = mul i64 %16, 12
  %18 = call ptr @realloc(ptr noundef %14, i64 noundef %17) #9
  store ptr %18, ptr %3, align 8
  br label %19

19:                                               ; preds = %12, %9
  %20 = load ptr, ptr %3, align 8
  ret ptr %20
}

; Function Attrs: mustprogress nounwind uwtable
define linkonce_odr hidden void @_ZN11hb_vector_tI18hb_outline_point_tLb0EE9set_errorEv(ptr noundef nonnull align 8 dereferenceable(16) %0) #2 comdat align 2 {
  %2 = alloca ptr, align 8
  store ptr %0, ptr %2, align 8
  %3 = load ptr, ptr %2, align 8
  %4 = getelementptr inbounds %struct.hb_vector_t, ptr %3, i32 0, i32 0
  %5 = load i32, ptr %4, align 8
  %6 = sub nsw i32 0, %5
  %7 = sub nsw i32 %6, 1
  %8 = getelementptr inbounds %struct.hb_vector_t, ptr %3, i32 0, i32 0
  store i32 %7, ptr %8, align 8
  ret void
}

; Function Attrs: mustprogress nounwind uwtable
define internal noundef zeroext i1 @_ZL25hb_unsigned_mul_overflowsjjPj(i32 noundef %0, i32 noundef %1, ptr noundef %2) #2 {
  %4 = alloca i32, align 4
  %5 = alloca i32, align 4
  %6 = alloca ptr, align 8
  %7 = alloca i32, align 4
  store i32 %0, ptr %4, align 4
  store i32 %1, ptr %5, align 4
  store ptr %2, ptr %6, align 8
  %8 = load ptr, ptr %6, align 8
  %9 = icmp ne ptr %8, null
  br i1 %9, label %11, label %10

10:                                               ; preds = %3
  store ptr %7, ptr %6, align 8
  br label %11

11:                                               ; preds = %10, %3
  %12 = load i32, ptr %4, align 4
  %13 = load i32, ptr %5, align 4
  %14 = load ptr, ptr %6, align 8
  %15 = call { i32, i1 } @llvm.umul.with.overflow.i32(i32 %12, i32 %13)
  %16 = extractvalue { i32, i1 } %15, 1
  %17 = extractvalue { i32, i1 } %15, 0
  store i32 %17, ptr %14, align 4
  ret i1 %16
}

; Function Attrs: mustprogress nounwind uwtable
define internal noundef nonnull align 4 dereferenceable(4) ptr @"_ZNK3$_0clIRjS1_EEDTqugefp_fp0_fp_fp0_EOT_OT0_"(ptr noundef nonnull align 1 dereferenceable(1) %0, ptr noundef nonnull align 4 dereferenceable(4) %1, ptr noundef nonnull align 4 dereferenceable(4) %2) #2 align 2 {
  %4 = alloca ptr, align 8
  %5 = alloca ptr, align 8
  %6 = alloca ptr, align 8
  store ptr %0, ptr %4, align 8
  store ptr %1, ptr %5, align 8
  store ptr %2, ptr %6, align 8
  %7 = load ptr, ptr %5, align 8
  %8 = load i32, ptr %7, align 4
  %9 = load ptr, ptr %6, align 8
  %10 = load i32, ptr %9, align 4
  %11 = icmp uge i32 %8, %10
  br i1 %11, label %12, label %14

12:                                               ; preds = %3
  %13 = load ptr, ptr %5, align 8
  br label %16

14:                                               ; preds = %3
  %15 = load ptr, ptr %6, align 8
  br label %16

16:                                               ; preds = %14, %12
  %17 = phi ptr [ %13, %12 ], [ %15, %14 ]
  ret ptr %17
}

; Function Attrs: mustprogress nounwind uwtable
define linkonce_odr hidden noundef zeroext i1 @_ZNK11hb_vector_tI18hb_outline_point_tLb0EE8in_errorEv(ptr noundef nonnull align 8 dereferenceable(16) %0) #2 comdat align 2 {
  %2 = alloca ptr, align 8
  store ptr %0, ptr %2, align 8
  %3 = load ptr, ptr %2, align 8
  %4 = getelementptr inbounds %struct.hb_vector_t, ptr %3, i32 0, i32 0
  %5 = load i32, ptr %4, align 8
  %6 = icmp slt i32 %5, 0
  ret i1 %6
}

; Function Attrs: mustprogress uwtable
define linkonce_odr hidden noundef nonnull align 4 dereferenceable(12) ptr @_ZN10CrapHelperI18hb_outline_point_tE8get_crapEv() #0 comdat align 2 {
  %1 = call noundef nonnull align 4 dereferenceable(12) ptr @_ZL4CrapI18hb_outline_point_tERT_v()
  ret ptr %1
}

; Function Attrs: mustprogress uwtable
define linkonce_odr hidden noundef zeroext i1 @_ZN11hb_vector_tI18hb_outline_point_tLb0EE5allocEjb(ptr noundef nonnull align 8 dereferenceable(16) %0, i32 noundef %1, i1 noundef zeroext %2) #0 comdat align 2 {
  %4 = alloca i1, align 1
  %5 = alloca ptr, align 8
  %6 = alloca i32, align 4
  %7 = alloca i8, align 1
  %8 = alloca i32, align 4
  %9 = alloca i8, align 1
  %10 = alloca ptr, align 8
  store ptr %0, ptr %5, align 8
  store i32 %1, ptr %6, align 4
  %11 = zext i1 %2 to i8
  store i8 %11, ptr %7, align 1
  %12 = load ptr, ptr %5, align 8
  %13 = call noundef zeroext i1 @_ZNK11hb_vector_tI18hb_outline_point_tLb0EE8in_errorEv(ptr noundef nonnull align 8 dereferenceable(16) %12)
  br i1 %13, label %14, label %15

14:                                               ; preds = %3
  store i1 false, ptr %4, align 1
  br label %90

15:                                               ; preds = %3
  %16 = load i8, ptr %7, align 1
  %17 = trunc i8 %16 to i1
  br i1 %17, label %18, label %35

18:                                               ; preds = %15
  %19 = getelementptr inbounds %struct.hb_vector_t, ptr %12, i32 0, i32 1
  %20 = call noundef nonnull align 4 dereferenceable(4) ptr @"_ZNK3$_0clIRjS1_EEDTqugefp_fp0_fp_fp0_EOT_OT0_"(ptr noundef nonnull align 1 dereferenceable(1) @_ZL6hb_max, ptr noundef nonnull align 4 dereferenceable(4) %6, ptr noundef nonnull align 4 dereferenceable(4) %19)
  %21 = load i32, ptr %20, align 4
  store i32 %21, ptr %6, align 4
  %22 = load i32, ptr %6, align 4
  %23 = getelementptr inbounds %struct.hb_vector_t, ptr %12, i32 0, i32 0
  %24 = load i32, ptr %23, align 8
  %25 = icmp ule i32 %22, %24
  br i1 %25, label %26, label %33

26:                                               ; preds = %18
  %27 = load i32, ptr %6, align 4
  %28 = getelementptr inbounds %struct.hb_vector_t, ptr %12, i32 0, i32 0
  %29 = load i32, ptr %28, align 8
  %30 = lshr i32 %29, 2
  %31 = icmp uge i32 %27, %30
  br i1 %31, label %32, label %33

32:                                               ; preds = %26
  store i1 true, ptr %4, align 1
  br label %90

33:                                               ; preds = %26, %18
  %34 = load i32, ptr %6, align 4
  store i32 %34, ptr %8, align 4
  br label %55

35:                                               ; preds = %15
  %36 = load i32, ptr %6, align 4
  %37 = getelementptr inbounds %struct.hb_vector_t, ptr %12, i32 0, i32 0
  %38 = load i32, ptr %37, align 8
  %39 = icmp ule i32 %36, %38
  br i1 %39, label %40, label %41

40:                                               ; preds = %35
  store i1 true, ptr %4, align 1
  br label %90

41:                                               ; preds = %35
  %42 = getelementptr inbounds %struct.hb_vector_t, ptr %12, i32 0, i32 0
  %43 = load i32, ptr %42, align 8
  store i32 %43, ptr %8, align 4
  br label %44

44:                                               ; preds = %48, %41
  %45 = load i32, ptr %6, align 4
  %46 = load i32, ptr %8, align 4
  %47 = icmp ugt i32 %45, %46
  br i1 %47, label %48, label %54

48:                                               ; preds = %44
  %49 = load i32, ptr %8, align 4
  %50 = lshr i32 %49, 1
  %51 = add i32 %50, 8
  %52 = load i32, ptr %8, align 4
  %53 = add i32 %52, %51
  store i32 %53, ptr %8, align 4
  br label %44, !llvm.loop !12

54:                                               ; preds = %44
  br label %55

55:                                               ; preds = %54, %33
  %56 = call noundef zeroext i1 @_ZNK11hb_vector_tI18hb_outline_point_tLb0EE8in_errorEv(ptr noundef nonnull align 8 dereferenceable(16) %12)
  br i1 %56, label %64, label %57

57:                                               ; preds = %55
  %58 = load i32, ptr %8, align 4
  %59 = load i32, ptr %6, align 4
  %60 = icmp ult i32 %58, %59
  br i1 %60, label %64, label %61

61:                                               ; preds = %57
  %62 = load i32, ptr %8, align 4
  %63 = call noundef zeroext i1 @_ZL25hb_unsigned_mul_overflowsjjPj(i32 noundef %62, i32 noundef 12, ptr noundef null)
  br label %64

64:                                               ; preds = %61, %57, %55
  %65 = phi i1 [ true, %57 ], [ true, %55 ], [ %63, %61 ]
  %66 = zext i1 %65 to i8
  store i8 %66, ptr %9, align 1
  %67 = load i8, ptr %9, align 1
  %68 = trunc i8 %67 to i1
  br i1 %68, label %69, label %70

69:                                               ; preds = %64
  call void @_ZN11hb_vector_tI18hb_outline_point_tLb0EE9set_errorEv(ptr noundef nonnull align 8 dereferenceable(16) %12)
  store i1 false, ptr %4, align 1
  br label %90

70:                                               ; preds = %64
  %71 = load i32, ptr %8, align 4
  %72 = call noundef ptr @_ZN11hb_vector_tI18hb_outline_point_tLb0EE14realloc_vectorIS0_TnPN12hb_enable_ifIXsr3std28is_trivially_copy_assignableIT_EE5valueEvE4typeELPv0EEEPS0_j11hb_priorityILj0EE(ptr noundef nonnull align 8 dereferenceable(16) %12, i32 noundef %71)
  store ptr %72, ptr %10, align 8
  %73 = load i32, ptr %8, align 4
  %74 = icmp ne i32 %73, 0
  br i1 %74, label %75, label %85

75:                                               ; preds = %70
  %76 = load ptr, ptr %10, align 8
  %77 = icmp ne ptr %76, null
  br i1 %77, label %85, label %78

78:                                               ; preds = %75
  %79 = load i32, ptr %8, align 4
  %80 = getelementptr inbounds %struct.hb_vector_t, ptr %12, i32 0, i32 0
  %81 = load i32, ptr %80, align 8
  %82 = icmp ule i32 %79, %81
  br i1 %82, label %83, label %84

83:                                               ; preds = %78
  store i1 true, ptr %4, align 1
  br label %90

84:                                               ; preds = %78
  call void @_ZN11hb_vector_tI18hb_outline_point_tLb0EE9set_errorEv(ptr noundef nonnull align 8 dereferenceable(16) %12)
  store i1 false, ptr %4, align 1
  br label %90

85:                                               ; preds = %75, %70
  %86 = load ptr, ptr %10, align 8
  %87 = getelementptr inbounds %struct.hb_vector_t, ptr %12, i32 0, i32 2
  store ptr %86, ptr %87, align 8
  %88 = load i32, ptr %8, align 4
  %89 = getelementptr inbounds %struct.hb_vector_t, ptr %12, i32 0, i32 0
  store i32 %88, ptr %89, align 8
  store i1 true, ptr %4, align 1
  br label %90

90:                                               ; preds = %85, %84, %83, %69, %40, %32, %14
  %91 = load i1, ptr %4, align 1
  ret i1 %91
}

; Function Attrs: mustprogress uwtable
define linkonce_odr hidden noundef ptr @_ZN11hb_vector_tI18hb_outline_point_tLb0EE4pushIJS0_EEEPS0_DpOT_(ptr noundef nonnull align 8 dereferenceable(16) %0, ptr noundef nonnull align 4 dereferenceable(12) %1) #0 comdat align 2 {
  %3 = alloca ptr, align 8
  %4 = alloca ptr, align 8
  %5 = alloca ptr, align 8
  %6 = alloca ptr, align 8
  store ptr %0, ptr %4, align 8
  store ptr %1, ptr %5, align 8
  %7 = load ptr, ptr %4, align 8
  %8 = getelementptr inbounds %struct.hb_vector_t, ptr %7, i32 0, i32 1
  %9 = load i32, ptr %8, align 4
  %10 = getelementptr inbounds %struct.hb_vector_t, ptr %7, i32 0, i32 0
  %11 = load i32, ptr %10, align 8
  %12 = icmp sge i32 %9, %11
  br i1 %12, label %13, label %20

13:                                               ; preds = %2
  %14 = getelementptr inbounds %struct.hb_vector_t, ptr %7, i32 0, i32 1
  %15 = load i32, ptr %14, align 4
  %16 = add i32 %15, 1
  %17 = call noundef zeroext i1 @_ZN11hb_vector_tI18hb_outline_point_tLb0EE5allocEjb(ptr noundef nonnull align 8 dereferenceable(16) %7, i32 noundef %16, i1 noundef zeroext false)
  br i1 %17, label %20, label %18

18:                                               ; preds = %13
  %19 = call noundef nonnull align 4 dereferenceable(12) ptr @_ZN10CrapHelperI18hb_outline_point_tE8get_crapEv()
  store ptr %19, ptr %3, align 8
  br label %30

20:                                               ; preds = %13, %2
  %21 = getelementptr inbounds %struct.hb_vector_t, ptr %7, i32 0, i32 2
  %22 = load ptr, ptr %21, align 8
  %23 = getelementptr inbounds %struct.hb_vector_t, ptr %7, i32 0, i32 1
  %24 = load i32, ptr %23, align 4
  %25 = add i32 %24, 1
  store i32 %25, ptr %23, align 4
  %26 = zext i32 %24 to i64
  %27 = getelementptr inbounds %struct.hb_outline_point_t, ptr %22, i64 %26
  store ptr %27, ptr %6, align 8
  %28 = load ptr, ptr %6, align 8
  %29 = load ptr, ptr %5, align 8
  call void @llvm.memcpy.p0.p0.i64(ptr align 4 %28, ptr align 4 %29, i64 12, i1 false)
  store ptr %28, ptr %3, align 8
  br label %30

30:                                               ; preds = %20, %18
  %31 = load ptr, ptr %3, align 8
  ret ptr %31
}

; Function Attrs: mustprogress nounwind uwtable
define linkonce_odr hidden void @_ZN18hb_outline_point_tC2EffNS_6type_tE(ptr noundef nonnull align 4 dereferenceable(12) %0, float noundef %1, float noundef %2, i32 noundef %3) unnamed_addr #2 comdat align 2 {
  %5 = alloca ptr, align 8
  %6 = alloca float, align 4
  %7 = alloca float, align 4
  %8 = alloca i32, align 4
  store ptr %0, ptr %5, align 8
  store float %1, ptr %6, align 4
  store float %2, ptr %7, align 4
  store i32 %3, ptr %8, align 4
  %9 = load ptr, ptr %5, align 8
  %10 = getelementptr inbounds %struct.hb_outline_point_t, ptr %9, i32 0, i32 0
  %11 = load float, ptr %6, align 4
  store float %11, ptr %10, align 4
  %12 = getelementptr inbounds %struct.hb_outline_point_t, ptr %9, i32 0, i32 1
  %13 = load float, ptr %7, align 4
  store float %13, ptr %12, align 4
  %14 = getelementptr inbounds %struct.hb_outline_point_t, ptr %9, i32 0, i32 2
  %15 = load i32, ptr %8, align 4
  store i32 %15, ptr %14, align 4
  ret void
}

; Function Attrs: mustprogress uwtable
define internal void @_ZL32hb_outline_recording_pen_move_toP15hb_draw_funcs_tPvP15hb_draw_state_tffS1_(ptr noundef %0, ptr noundef %1, ptr noundef %2, float noundef %3, float noundef %4, ptr noundef %5) #0 {
  %7 = alloca ptr, align 8
  %8 = alloca ptr, align 8
  %9 = alloca ptr, align 8
  %10 = alloca float, align 4
  %11 = alloca float, align 4
  %12 = alloca ptr, align 8
  %13 = alloca ptr, align 8
  %14 = alloca %struct.hb_outline_point_t, align 4
  store ptr %0, ptr %7, align 8
  store ptr %1, ptr %8, align 8
  store ptr %2, ptr %9, align 8
  store float %3, ptr %10, align 4
  store float %4, ptr %11, align 4
  store ptr %5, ptr %12, align 8
  %15 = load ptr, ptr %8, align 8
  store ptr %15, ptr %13, align 8
  %16 = load ptr, ptr %13, align 8
  %17 = getelementptr inbounds %struct.hb_outline_t, ptr %16, i32 0, i32 0
  %18 = load float, ptr %10, align 4
  %19 = load float, ptr %11, align 4
  call void @_ZN18hb_outline_point_tC2EffNS_6type_tE(ptr noundef nonnull align 4 dereferenceable(12) %14, float noundef %18, float noundef %19, i32 noundef 0)
  %20 = call noundef ptr @_ZN11hb_vector_tI18hb_outline_point_tLb0EE4pushIJS0_EEEPS0_DpOT_(ptr noundef nonnull align 8 dereferenceable(16) %17, ptr noundef nonnull align 4 dereferenceable(12) %14)
  ret void
}