; Function Attrs: mustprogress nounwind uwtable
define internal void @_ZL32hb_outline_recording_pen_move_toP15hb_draw_funcs_tPvP15hb_draw_state_tffS1_(ptr nocapture readnone %0, ptr nocapture noundef %1, ptr nocapture readnone %2, float noundef %3, float noundef %4, ptr nocapture readnone %5) #5 {
  %7 = getelementptr inbounds i8, ptr %1, i64 4
  %8 = load i32, ptr %7, align 4
  %9 = load i32, ptr %1, align 8
  %.not.i = icmp slt i32 %8, %9
  br i1 %.not.i, label %_ZN11hb_vector_tI18hb_outline_point_tLb0EE5allocEjb.exit.thread.i, label %10

10:                                               ; preds = %6
  %11 = add i32 %8, 1
  %12 = icmp slt i32 %9, 0
  br i1 %12, label %_ZN11hb_vector_tI18hb_outline_point_tLb0EE5allocEjb.exit.thread6.i, label %13

13:                                               ; preds = %10
  %.not.i.i = icmp ult i32 %9, %11
  br i1 %.not.i.i, label %.preheader.i.i, label %_ZN11hb_vector_tI18hb_outline_point_tLb0EE5allocEjb.exit.thread.i

.preheader.i.i:                                   ; preds = %13, %.preheader.i.i
  %.01542.i.i = phi i32 [ %16, %.preheader.i.i ], [ %9, %13 ]
  %14 = lshr i32 %.01542.i.i, 1
  %15 = add i32 %.01542.i.i, 8
  %16 = add i32 %15, %14
  %17 = icmp ult i32 %16, %11
  br i1 %17, label %.preheader.i.i, label %.thread.i.i, !llvm.loop !12

.thread.i.i:                                      ; preds = %.preheader.i.i
  %18 = icmp ugt i32 %16, 357913941
  br i1 %18, label %_ZN11hb_vector_tI18hb_outline_point_tLb0EE5allocEjb.exit.thread9.i, label %_ZN11hb_vector_tI18hb_outline_point_tLb0EE14realloc_vectorIS0_TnPN12hb_enable_ifIXsr3std28is_trivially_copy_assignableIT_EE5valueEvE4typeELPv0EEEPS0_j11hb_priorityILj0EE.exit.i.i

_ZN11hb_vector_tI18hb_outline_point_tLb0EE14realloc_vectorIS0_TnPN12hb_enable_ifIXsr3std28is_trivially_copy_assignableIT_EE5valueEvE4typeELPv0EEEPS0_j11hb_priorityILj0EE.exit.i.i: ; preds = %.thread.i.i
  %19 = getelementptr inbounds i8, ptr %1, i64 8
  %20 = load ptr, ptr %19, align 8
  %21 = zext nneg i32 %16 to i64
  %22 = mul nuw nsw i64 %21, 12
  %23 = tail call ptr @realloc(ptr noundef %20, i64 noundef %22) #11
  %.not43.i.i = icmp eq ptr %23, null
  br i1 %.not43.i.i, label %24, label %_ZN11hb_vector_tI18hb_outline_point_tLb0EE5allocEjb.exit.i

24:                                               ; preds = %_ZN11hb_vector_tI18hb_outline_point_tLb0EE14realloc_vectorIS0_TnPN12hb_enable_ifIXsr3std28is_trivially_copy_assignableIT_EE5valueEvE4typeELPv0EEEPS0_j11hb_priorityILj0EE.exit.i.i
  %25 = load i32, ptr %1, align 8
  %.not21.i.i = icmp ugt i32 %16, %25
  br i1 %.not21.i.i, label %_ZN11hb_vector_tI18hb_outline_point_tLb0EE5allocEjb.exit.thread9.i, label %_ZN11hb_vector_tI18hb_outline_point_tLb0EE5allocEjb.exit.thread.i

_ZN11hb_vector_tI18hb_outline_point_tLb0EE5allocEjb.exit.thread9.i: ; preds = %24, %.thread.i.i
  %.138.sink.i.ph.in.i = phi i32 [ %9, %.thread.i.i ], [ %25, %24 ]
  %.138.sink.i.ph.i = xor i32 %.138.sink.i.ph.in.i, -1
  store i32 %.138.sink.i.ph.i, ptr %1, align 8
  br label %_ZN11hb_vector_tI18hb_outline_point_tLb0EE5allocEjb.exit.thread6.i

_ZN11hb_vector_tI18hb_outline_point_tLb0EE5allocEjb.exit.i: ; preds = %_ZN11hb_vector_tI18hb_outline_point_tLb0EE14realloc_vectorIS0_TnPN12hb_enable_ifIXsr3std28is_trivially_copy_assignableIT_EE5valueEvE4typeELPv0EEEPS0_j11hb_priorityILj0EE.exit.i.i
  store ptr %23, ptr %19, align 8
  store i32 %16, ptr %1, align 8
  br label %_ZN11hb_vector_tI18hb_outline_point_tLb0EE5allocEjb.exit.thread.i

_ZN11hb_vector_tI18hb_outline_point_tLb0EE5allocEjb.exit.thread6.i: ; preds = %_ZN11hb_vector_tI18hb_outline_point_tLb0EE5allocEjb.exit.thread9.i, %10
  tail call void @llvm.memcpy.p0.p0.i64(ptr noundef nonnull align 16 dereferenceable(12) @_hb_CrapPool, ptr noundef nonnull align 16 dereferenceable(12) @_hb_NullPool, i64 12, i1 false)
  br label %_ZN11hb_vector_tI18hb_outline_point_tLb0EE4pushIJS0_EEEPS0_DpOT_.exit

_ZN11hb_vector_tI18hb_outline_point_tLb0EE5allocEjb.exit.thread.i: ; preds = %_ZN11hb_vector_tI18hb_outline_point_tLb0EE5allocEjb.exit.i, %24, %13, %6
  %26 = getelementptr inbounds i8, ptr %1, i64 8
  %27 = load ptr, ptr %26, align 8
  %28 = load i32, ptr %7, align 4
  %29 = add i32 %28, 1
  store i32 %29, ptr %7, align 4
  %30 = zext i32 %28 to i64
  %31 = getelementptr inbounds %struct.hb_outline_point_t, ptr %27, i64 %30
  store float %3, ptr %31, align 4
  %.sroa.2.0..sroa_idx = getelementptr inbounds i8, ptr %31, i64 4
  store float %4, ptr %.sroa.2.0..sroa_idx, align 4
  %.sroa.3.0..sroa_idx = getelementptr inbounds i8, ptr %31, i64 8
  store i32 0, ptr %.sroa.3.0..sroa_idx, align 4
  br label %_ZN11hb_vector_tI18hb_outline_point_tLb0EE4pushIJS0_EEEPS0_DpOT_.exit

_ZN11hb_vector_tI18hb_outline_point_tLb0EE4pushIJS0_EEEPS0_DpOT_.exit: ; preds = %_ZN11hb_vector_tI18hb_outline_point_tLb0EE5allocEjb.exit.thread6.i, %_ZN11hb_vector_tI18hb_outline_point_tLb0EE5allocEjb.exit.thread.i
  ret void
}